target datalayout = "e-m:e-p270:32:32-p271:32:32-p272:64:64-i64:64-i128:128-f80:128-n8:16:32:64-S128"
target triple = "x86_64-pc-linux-gnu"

%struct.psset_s = type { [64 x %struct.hpdata_age_heap_t], [1 x i64], %struct.psset_stats_s, %struct.hpdata_empty_list_t, [128 x %struct.hpdata_purge_list_t], [2 x i64], %struct.hpdata_hugify_list_t }
%struct.hpdata_age_heap_t = type { %struct.ph_s }
%struct.ph_s = type { ptr, i64 }
%struct.psset_stats_s = type { %struct.psset_bin_stats_s, [2 x %struct.psset_bin_stats_s], [64 x [2 x %struct.psset_bin_stats_s]], [2 x %struct.psset_bin_stats_s], [2 x %struct.psset_bin_stats_s] }
%struct.psset_bin_stats_s = type { i64, i64, i64 }
%struct.hpdata_empty_list_t = type { %struct.anon }
%struct.anon = type { ptr }
%struct.hpdata_purge_list_t = type { %struct.anon.0 }
%struct.anon.0 = type { ptr }
%struct.hpdata_hugify_list_t = type { %struct.anon.1 }
%struct.anon.1 = type { ptr }
%struct.hpdata_s = type { ptr, i64, i8, i8, i8, i8, i8, %struct.nstime_t, i8, i8, i8, i8, i8, %union.anon, %struct.anon.3, %struct.anon.4, i64, i64, [8 x i64], i64, [8 x i64] }
%struct.nstime_t = type { i64 }
%union.anon = type { %struct.hpdata_age_heap_link_t }
%struct.hpdata_age_heap_link_t = type { %struct.phn_link_s }
%struct.phn_link_s = type { ptr, ptr, ptr }
%struct.anon.3 = type { ptr, ptr }
%struct.anon.4 = type { ptr, ptr }
%struct.anon.2 = type { ptr, ptr }

; Function Attrs: inlinehint nounwind uwtable
define internal i32 @fls_lu(i64 noundef %0) #3 {
  %2 = alloca i64, align 8
  store i64 %0, ptr %2, align 8, !tbaa !16
  %3 = load i64, ptr %2, align 8, !tbaa !16
  %4 = icmp ne i64 %3, 0
  call void @llvm.assume(i1 %4)
  %5 = load i64, ptr %2, align 8, !tbaa !16
  %6 = call i64 @llvm.ctlz.i64(i64 %5, i1 true)
  %7 = trunc i64 %6 to i32
  %8 = sext i32 %7 to i64
  %9 = xor i64 63, %8
  %10 = trunc i64 %9 to i32
  ret i32 %10
}

; Function Attrs: inlinehint nounwind uwtable
define internal i32 @fls_u64(i64 noundef %0) #3 {
  %2 = alloca i64, align 8
  store i64 %0, ptr %2, align 8, !tbaa !16
  %3 = load i64, ptr %2, align 8, !tbaa !16
  %4 = call i32 @fls_lu(i64 noundef %3)
  ret i32 %4
}

; Function Attrs: inlinehint nounwind uwtable
define internal i32 @lg_floor(i64 noundef %0) #3 {
  %2 = alloca i64, align 8
  store i64 %0, ptr %2, align 8, !tbaa !16
  %3 = load i64, ptr %2, align 8, !tbaa !16
  %4 = icmp ne i64 %3, 0
  call void @llvm.assume(i1 %4)
  %5 = load i64, ptr %2, align 8, !tbaa !16
  %6 = call i32 @fls_u64(i64 noundef %5)
  ret i32 %6
}

; Function Attrs: inlinehint nounwind uwtable
define internal i32 @lg_ceil(i64 noundef %0) #3 {
  %2 = alloca i64, align 8
  store i64 %0, ptr %2, align 8, !tbaa !16
  %3 = load i64, ptr %2, align 8, !tbaa !16
  %4 = call i32 @lg_floor(i64 noundef %3)
  %5 = load i64, ptr %2, align 8, !tbaa !16
  %6 = load i64, ptr %2, align 8, !tbaa !16
  %7 = sub i64 %6, 1
  %8 = and i64 %5, %7
  %9 = icmp eq i64 %8, 0
  %10 = select i1 %9, i32 0, i32 1
  %11 = add i32 %4, %10
  ret i32 %11
}

; Function Attrs: alwaysinline nounwind uwtable
define internal i32 @sz_psz2ind(i64 noundef %0) #5 {
  %2 = alloca i32, align 4
  %3 = alloca i64, align 8
  %4 = alloca i32, align 4
  %5 = alloca i32, align 4
  %6 = alloca i32, align 4
  %7 = alloca i32, align 4
  %8 = alloca i32, align 4
  %9 = alloca i32, align 4
  store i64 %0, ptr %3, align 8, !tbaa !16
  br label %10

10:                                               ; preds = %1
  br label %11

11:                                               ; preds = %10
  %12 = load i64, ptr %3, align 8, !tbaa !16
  %13 = icmp ugt i64 %12, 8070450532247928832
  %14 = xor i1 %13, true
  %15 = xor i1 %14, true
  %16 = zext i1 %15 to i32
  %17 = sext i32 %16 to i64
  %18 = call i64 @llvm.expect.i64(i64 %17, i64 0)
  %19 = icmp ne i64 %18, 0
  br i1 %19, label %20, label %21

20:                                               ; preds = %11
  store i32 199, ptr %2, align 4
  br label %54

21:                                               ; preds = %11
  call void @llvm.lifetime.start.p0(i64 4, ptr %4) #9
  %22 = load i64, ptr %3, align 8, !tbaa !16
  %23 = call i32 @lg_ceil(i64 noundef %22)
  store i32 %23, ptr %4, align 4, !tbaa !9
  call void @llvm.lifetime.start.p0(i64 4, ptr %5) #9
  %24 = load i32, ptr %4, align 4, !tbaa !9
  %25 = icmp ult i32 %24, 14
  br i1 %25, label %26, label %27

26:                                               ; preds = %21
  br label %30

27:                                               ; preds = %21
  %28 = load i32, ptr %4, align 4, !tbaa !9
  %29 = sub i32 %28, 14
  br label %30

30:                                               ; preds = %27, %26
  %31 = phi i32 [ 0, %26 ], [ %29, %27 ]
  store i32 %31, ptr %5, align 4, !tbaa !9
  call void @llvm.lifetime.start.p0(i64 4, ptr %6) #9
  %32 = load i32, ptr %5, align 4, !tbaa !9
  %33 = icmp eq i32 %32, 0
  br i1 %33, label %34, label %35

34:                                               ; preds = %30
  br label %39

35:                                               ; preds = %30
  %36 = load i32, ptr %5, align 4, !tbaa !9
  %37 = sub i32 %36, 1
  %38 = add i32 12, %37
  br label %39

39:                                               ; preds = %35, %34
  %40 = phi i32 [ 12, %34 ], [ %38, %35 ]
  store i32 %40, ptr %6, align 4, !tbaa !9
  call void @llvm.lifetime.start.p0(i64 4, ptr %7) #9
  %41 = load i64, ptr %3, align 8, !tbaa !16
  %42 = sub i64 %41, 1
  %43 = load i32, ptr %6, align 4, !tbaa !9
  %44 = zext i32 %43 to i64
  %45 = lshr i64 %42, %44
  %46 = and i64 %45, 3
  %47 = trunc i64 %46 to i32
  store i32 %47, ptr %7, align 4, !tbaa !9
  call void @llvm.lifetime.start.p0(i64 4, ptr %8) #9
  %48 = load i32, ptr %5, align 4, !tbaa !9
  %49 = shl i32 %48, 2
  store i32 %49, ptr %8, align 4, !tbaa !9
  call void @llvm.lifetime.start.p0(i64 4, ptr %9) #9
  %50 = load i32, ptr %8, align 4, !tbaa !9
  %51 = load i32, ptr %7, align 4, !tbaa !9
  %52 = add i32 %50, %51
  store i32 %52, ptr %9, align 4, !tbaa !9
  %53 = load i32, ptr %9, align 4, !tbaa !9
  store i32 %53, ptr %2, align 4
  call void @llvm.lifetime.end.p0(i64 4, ptr %9) #9
  call void @llvm.lifetime.end.p0(i64 4, ptr %8) #9
  call void @llvm.lifetime.end.p0(i64 4, ptr %7) #9
  call void @llvm.lifetime.end.p0(i64 4, ptr %6) #9
  call void @llvm.lifetime.end.p0(i64 4, ptr %5) #9
  call void @llvm.lifetime.end.p0(i64 4, ptr %4) #9
  br label %54

54:                                               ; preds = %39, %20
  %55 = load i32, ptr %2, align 4
  ret i32 %55
}

; Function Attrs: inlinehint nounwind uwtable
define internal i64 @hpdata_longest_free_range_get(ptr noundef %0) #3 {
  %2 = alloca ptr, align 8
  store ptr %0, ptr %2, align 8, !tbaa !33
  %3 = load ptr, ptr %2, align 8, !tbaa !33
  %4 = getelementptr inbounds nuw %struct.hpdata_s, ptr %3, i32 0, i32 16
  %5 = load i64, ptr %4, align 8, !tbaa !56
  ret i64 %5
}

; Function Attrs: inlinehint nounwind uwtable
define internal void @fb_set(ptr noundef %0, i64 noundef %1, i64 noundef %2) #3 {
  %4 = alloca ptr, align 8
  %5 = alloca i64, align 8
  %6 = alloca i64, align 8
  %7 = alloca i64, align 8
  %8 = alloca i64, align 8
  store ptr %0, ptr %4, align 8, !tbaa !14
  store i64 %1, ptr %5, align 8, !tbaa !16
  store i64 %2, ptr %6, align 8, !tbaa !16
  br label %9

9:                                                ; preds = %3
  br label %10

10:                                               ; preds = %9
  call void @llvm.lifetime.start.p0(i64 8, ptr %7) #9
  %11 = load i64, ptr %6, align 8, !tbaa !16
  %12 = udiv i64 %11, 64
  store i64 %12, ptr %7, align 8, !tbaa !16
  call void @llvm.lifetime.start.p0(i64 8, ptr %8) #9
  %13 = load i64, ptr %6, align 8, !tbaa !16
  %14 = urem i64 %13, 64
  store i64 %14, ptr %8, align 8, !tbaa !16
  %15 = load i64, ptr %8, align 8, !tbaa !16
  %16 = shl i64 1, %15
  %17 = load ptr, ptr %4, align 8, !tbaa !14
  %18 = load i64, ptr %7, align 8, !tbaa !16
  %19 = getelementptr inbounds nuw i64, ptr %17, i64 %18
  %20 = load i64, ptr %19, align 8, !tbaa !16
  %21 = or i64 %20, %16
  store i64 %21, ptr %19, align 8, !tbaa !16
  call void @llvm.lifetime.end.p0(i64 8, ptr %8) #9
  call void @llvm.lifetime.end.p0(i64 8, ptr %7) #9
  ret void
}

; Function Attrs: nounwind uwtable
define internal i32 @psset_hpdata_heap_index(ptr noundef %0) #0 {
  %2 = alloca ptr, align 8
  %3 = alloca i64, align 8
  %4 = alloca i32, align 4
  store ptr %0, ptr %2, align 8, !tbaa !33
  br label %5

5:                                                ; preds = %1
  br label %6

6:                                                ; preds = %5
  br label %7

7:                                                ; preds = %6
  br label %8

8:                                                ; preds = %7
  call void @llvm.lifetime.start.p0(i64 8, ptr %3) #9
  %9 = load ptr, ptr %2, align 8, !tbaa !33
  %10 = call i64 @hpdata_longest_free_range_get(ptr noundef %9)
  store i64 %10, ptr %3, align 8, !tbaa !16
  call void @llvm.lifetime.start.p0(i64 4, ptr %4) #9
  %11 = load i64, ptr %3, align 8, !tbaa !16
  %12 = shl i64 %11, 12
  %13 = call i64 @je_sz_psz_quantize_floor(i64 noundef %12)
  %14 = call i32 @sz_psz2ind(i64 noundef %13)
  store i32 %14, ptr %4, align 4, !tbaa !9
  br label %15

15:                                               ; preds = %8
  br label %16

16:                                               ; preds = %15
  br label %17

17:                                               ; preds = %16
  %18 = load i32, ptr %4, align 4, !tbaa !9
  call void @llvm.lifetime.end.p0(i64 4, ptr %4) #9
  call void @llvm.lifetime.end.p0(i64 8, ptr %3) #9
  ret i32 %18
}

; Function Attrs: nounwind uwtable
define internal void @psset_hpdata_heap_insert(ptr noundef %0, ptr noundef %1) #0 {
  %3 = alloca ptr, align 8
  %4 = alloca ptr, align 8
  %5 = alloca i32, align 4
  store ptr %0, ptr %3, align 8, !tbaa !4
  store ptr %1, ptr %4, align 8, !tbaa !33
  call void @llvm.lifetime.start.p0(i64 4, ptr %5) #9
  %6 = load ptr, ptr %4, align 8, !tbaa !33
  %7 = call i32 @psset_hpdata_heap_index(ptr noundef %6)
  store i32 %7, ptr %5, align 4, !tbaa !9
  %8 = load ptr, ptr %3, align 8, !tbaa !4
  %9 = getelementptr inbounds nuw %struct.psset_s, ptr %8, i32 0, i32 0
  %10 = load i32, ptr %5, align 4, !tbaa !9
  %11 = zext i32 %10 to i64
  %12 = getelementptr inbounds nuw [64 x %struct.hpdata_age_heap_t], ptr %9, i64 0, i64 %11
  %13 = call zeroext i1 @je_hpdata_age_heap_empty(ptr noundef %12)
  br i1 %13, label %14, label %20

14:                                               ; preds = %2
  %15 = load ptr, ptr %3, align 8, !tbaa !4
  %16 = getelementptr inbounds nuw %struct.psset_s, ptr %15, i32 0, i32 1
  %17 = getelementptr inbounds [1 x i64], ptr %16, i64 0, i64 0
  %18 = load i32, ptr %5, align 4, !tbaa !9
  %19 = zext i32 %18 to i64
  call void @fb_set(ptr noundef %17, i64 noundef 64, i64 noundef %19)
  br label %20

20:                                               ; preds = %14, %2
  %21 = load ptr, ptr %3, align 8, !tbaa !4
  %22 = getelementptr inbounds nuw %struct.psset_s, ptr %21, i32 0, i32 0
  %23 = load i32, ptr %5, align 4, !tbaa !9
  %24 = zext i32 %23 to i64
  %25 = getelementptr inbounds nuw [64 x %struct.hpdata_age_heap_t], ptr %22, i64 0, i64 %24
  %26 = load ptr, ptr %4, align 8, !tbaa !33
  call void @je_hpdata_age_heap_insert(ptr noundef %25, ptr noundef %26)
  call void @llvm.lifetime.end.p0(i64 4, ptr %5) #9
  ret void
}

; Function Attrs: inlinehint nounwind uwtable
define internal zeroext i1 @hpdata_full(ptr noundef %0) #3 {
  %2 = alloca ptr, align 8
  store ptr %0, ptr %2, align 8, !tbaa !33
  %3 = load ptr, ptr %2, align 8, !tbaa !33
  %4 = getelementptr inbounds nuw %struct.hpdata_s, ptr %3, i32 0, i32 17
  %5 = load i64, ptr %4, align 8, !tbaa !49
  %6 = icmp eq i64 %5, 512
  ret i1 %6
}

; Function Attrs: inlinehint nounwind uwtable
define internal void @hpdata_empty_list_prepend(ptr noundef %0, ptr noundef %1) #3 {
  %3 = alloca ptr, align 8
  %4 = alloca ptr, align 8
  store ptr %0, ptr %3, align 8, !tbaa !18
  store ptr %1, ptr %4, align 8, !tbaa !33
  br label %5

5:                                                ; preds = %2
  %6 = load ptr, ptr %4, align 8, !tbaa !33
  %7 = load ptr, ptr %4, align 8, !tbaa !33
  %8 = getelementptr inbounds nuw %struct.hpdata_s, ptr %7, i32 0, i32 13
  %9 = getelementptr inbounds nuw %struct.anon.2, ptr %8, i32 0, i32 0
  store ptr %6, ptr %9, align 8, !tbaa !57
  %10 = load ptr, ptr %4, align 8, !tbaa !33
  %11 = load ptr, ptr %4, align 8, !tbaa !33
  %12 = getelementptr inbounds nuw %struct.hpdata_s, ptr %11, i32 0, i32 13
  %13 = getelementptr inbounds nuw %struct.anon.2, ptr %12, i32 0, i32 1
  store ptr %10, ptr %13, align 8, !tbaa !57
  br label %14

14:                                               ; preds = %5
  br label %15

15:                                               ; preds = %14
  %16 = load ptr, ptr %3, align 8, !tbaa !18
  %17 = getelementptr inbounds nuw %struct.hpdata_empty_list_t, ptr %16, i32 0, i32 0
  %18 = getelementptr inbounds nuw %struct.anon, ptr %17, i32 0, i32 0
  %19 = load ptr, ptr %18, align 8, !tbaa !19
  %20 = icmp eq ptr %19, null
  br i1 %20, label %77, label %21

21:                                               ; preds = %15
  br label %22

22:                                               ; preds = %21
  %23 = load ptr, ptr %3, align 8, !tbaa !18
  %24 = getelementptr inbounds nuw %struct.hpdata_empty_list_t, ptr %23, i32 0, i32 0
  %25 = getelementptr inbounds nuw %struct.anon, ptr %24, i32 0, i32 0
  %26 = load ptr, ptr %25, align 8, !tbaa !19
  %27 = getelementptr inbounds nuw %struct.hpdata_s, ptr %26, i32 0, i32 13
  %28 = getelementptr inbounds nuw %struct.anon.2, ptr %27, i32 0, i32 1
  %29 = load ptr, ptr %28, align 8, !tbaa !57
  %30 = load ptr, ptr %4, align 8, !tbaa !33
  %31 = getelementptr inbounds nuw %struct.hpdata_s, ptr %30, i32 0, i32 13
  %32 = getelementptr inbounds nuw %struct.anon.2, ptr %31, i32 0, i32 1
  %33 = load ptr, ptr %32, align 8, !tbaa !57
  %34 = getelementptr inbounds nuw %struct.hpdata_s, ptr %33, i32 0, i32 13
  %35 = getelementptr inbounds nuw %struct.anon.2, ptr %34, i32 0, i32 0
  store ptr %29, ptr %35, align 8, !tbaa !57
  %36 = load ptr, ptr %4, align 8, !tbaa !33
  %37 = getelementptr inbounds nuw %struct.hpdata_s, ptr %36, i32 0, i32 13
  %38 = getelementptr inbounds nuw %struct.anon.2, ptr %37, i32 0, i32 1
  %39 = load ptr, ptr %38, align 8, !tbaa !57
  %40 = load ptr, ptr %3, align 8, !tbaa !18
  %41 = getelementptr inbounds nuw %struct.hpdata_empty_list_t, ptr %40, i32 0, i32 0
  %42 = getelementptr inbounds nuw %struct.anon, ptr %41, i32 0, i32 0
  %43 = load ptr, ptr %42, align 8, !tbaa !19
  %44 = getelementptr inbounds nuw %struct.hpdata_s, ptr %43, i32 0, i32 13
  %45 = getelementptr inbounds nuw %struct.anon.2, ptr %44, i32 0, i32 1
  store ptr %39, ptr %45, align 8, !tbaa !57
  %46 = load ptr, ptr %4, align 8, !tbaa !33
  %47 = getelementptr inbounds nuw %struct.hpdata_s, ptr %46, i32 0, i32 13
  %48 = getelementptr inbounds nuw %struct.anon.2, ptr %47, i32 0, i32 1
  %49 = load ptr, ptr %48, align 8, !tbaa !57
  %50 = getelementptr inbounds nuw %struct.hpdata_s, ptr %49, i32 0, i32 13
  %51 = getelementptr inbounds nuw %struct.anon.2, ptr %50, i32 0, i32 0
  %52 = load ptr, ptr %51, align 8, !tbaa !57
  %53 = load ptr, ptr %4, align 8, !tbaa !33
  %54 = getelementptr inbounds nuw %struct.hpdata_s, ptr %53, i32 0, i32 13
  %55 = getelementptr inbounds nuw %struct.anon.2, ptr %54, i32 0, i32 1
  store ptr %52, ptr %55, align 8, !tbaa !57
  %56 = load ptr, ptr %3, align 8, !tbaa !18
  %57 = getelementptr inbounds nuw %struct.hpdata_empty_list_t, ptr %56, i32 0, i32 0
  %58 = getelementptr inbounds nuw %struct.anon, ptr %57, i32 0, i32 0
  %59 = load ptr, ptr %58, align 8, !tbaa !19
  %60 = load ptr, ptr %3, align 8, !tbaa !18
  %61 = getelementptr inbounds nuw %struct.hpdata_empty_list_t, ptr %60, i32 0, i32 0
  %62 = getelementptr inbounds nuw %struct.anon, ptr %61, i32 0, i32 0
  %63 = load ptr, ptr %62, align 8, !tbaa !19
  %64 = getelementptr inbounds nuw %struct.hpdata_s, ptr %63, i32 0, i32 13
  %65 = getelementptr inbounds nuw %struct.anon.2, ptr %64, i32 0, i32 1
  %66 = load ptr, ptr %65, align 8, !tbaa !57
  %67 = getelementptr inbounds nuw %struct.hpdata_s, ptr %66, i32 0, i32 13
  %68 = getelementptr inbounds nuw %struct.anon.2, ptr %67, i32 0, i32 0
  store ptr %59, ptr %68, align 8, !tbaa !57
  %69 = load ptr, ptr %4, align 8, !tbaa !33
  %70 = load ptr, ptr %4, align 8, !tbaa !33
  %71 = getelementptr inbounds nuw %struct.hpdata_s, ptr %70, i32 0, i32 13
  %72 = getelementptr inbounds nuw %struct.anon.2, ptr %71, i32 0, i32 1
  %73 = load ptr, ptr %72, align 8, !tbaa !57
  %74 = getelementptr inbounds nuw %struct.hpdata_s, ptr %73, i32 0, i32 13
  %75 = getelementptr inbounds nuw %struct.anon.2, ptr %74, i32 0, i32 0
  store ptr %69, ptr %75, align 8, !tbaa !57
  br label %76

76:                                               ; preds = %22
  br label %77

77:                                               ; preds = %76, %15
  %78 = load ptr, ptr %4, align 8, !tbaa !33
  %79 = load ptr, ptr %3, align 8, !tbaa !18
  %80 = getelementptr inbounds nuw %struct.hpdata_empty_list_t, ptr %79, i32 0, i32 0
  %81 = getelementptr inbounds nuw %struct.anon, ptr %80, i32 0, i32 0
  store ptr %78, ptr %81, align 8, !tbaa !19
  br label %82

82:                                               ; preds = %77
  ret void
}

; Function Attrs: inlinehint nounwind uwtable
define internal zeroext i1 @hpdata_empty(ptr noundef %0) #3 {
  %2 = alloca ptr, align 8
  store ptr %0, ptr %2, align 8, !tbaa !33
  %3 = load ptr, ptr %2, align 8, !tbaa !33
  %4 = getelementptr inbounds nuw %struct.hpdata_s, ptr %3, i32 0, i32 17
  %5 = load i64, ptr %4, align 8, !tbaa !49
  %6 = icmp eq i64 %5, 0
  ret i1 %6
}

; Function Attrs: inlinehint nounwind uwtable
define internal void @hpdata_in_psset_alloc_container_set(ptr noundef %0, i1 noundef zeroext %1) #3 {
  %3 = alloca ptr, align 8
  %4 = alloca i8, align 1
  store ptr %0, ptr %3, align 8, !tbaa !33
  %5 = zext i1 %1 to i8
  store i8 %5, ptr %4, align 1, !tbaa !34
  br label %6

6:                                                ; preds = %2
  br label %7

7:                                                ; preds = %6
  %8 = load i8, ptr %4, align 1, !tbaa !34, !range !36, !noundef !37
  %9 = trunc i8 %8 to i1
  %10 = load ptr, ptr %3, align 8, !tbaa !33
  %11 = getelementptr inbounds nuw %struct.hpdata_s, ptr %10, i32 0, i32 4
  %12 = zext i1 %9 to i8
  store i8 %12, ptr %11, align 2, !tbaa !42
  ret void
}

; Function Attrs: nounwind uwtable
define internal void @psset_alloc_container_insert(ptr noundef %0, ptr noundef %1) #0 {
  %3 = alloca ptr, align 8
  %4 = alloca ptr, align 8
  store ptr %0, ptr %3, align 8, !tbaa !4
  store ptr %1, ptr %4, align 8, !tbaa !33
  br label %5

5:                                                ; preds = %2
  br label %6

6:                                                ; preds = %5
  %7 = load ptr, ptr %4, align 8, !tbaa !33
  call void @hpdata_in_psset_alloc_container_set(ptr noundef %7, i1 noundef zeroext true)
  %8 = load ptr, ptr %4, align 8, !tbaa !33
  %9 = call zeroext i1 @hpdata_empty(ptr noundef %8)
  br i1 %9, label %10, label %14

10:                                               ; preds = %6
  %11 = load ptr, ptr %3, align 8, !tbaa !4
  %12 = getelementptr inbounds nuw %struct.psset_s, ptr %11, i32 0, i32 3
  %13 = load ptr, ptr %4, align 8, !tbaa !33
  call void @hpdata_empty_list_prepend(ptr noundef %12, ptr noundef %13)
  br label %22

14:                                               ; preds = %6
  %15 = load ptr, ptr %4, align 8, !tbaa !33
  %16 = call zeroext i1 @hpdata_full(ptr noundef %15)
  br i1 %16, label %17, label %18

17:                                               ; preds = %14
  br label %21

18:                                               ; preds = %14
  %19 = load ptr, ptr %3, align 8, !tbaa !4
  %20 = load ptr, ptr %4, align 8, !tbaa !33
  call void @psset_hpdata_heap_insert(ptr noundef %19, ptr noundef %20)
  br label %21

21:                                               ; preds = %18, %17
  br label %22

22:                                               ; preds = %21, %10
  ret void
}